target datalayout = "e-m:e-p270:32:32-p271:32:32-p272:64:64-i64:64-i128:128-f80:128-n8:16:32:64-S128"
target triple = "x86_64-pc-linux-gnu"

%struct.decode_as_s = type { ptr, ptr, i32, i32, ptr, ptr, ptr, ptr, ptr, ptr, ptr }
%struct.reassembly_table = type { ptr, ptr, ptr, ptr, ptr }
%struct.reassembly_table_functions = type { ptr, ptr, ptr, ptr, ptr, ptr }

@assocs = internal global ptr null, align 8
@trace_sccp = internal global i8 0, align 1
@.str.104 = private unnamed_addr constant [9 x i8] c"sccp.ssn\00", align 1
@proto_register_sccp.sccp_da = internal global %struct.decode_as_s { ptr @.str.275, ptr @.str.104, i32 1, i32 0, ptr @proto_register_sccp.sccp_da_values, ptr null, ptr null, ptr @decode_as_default_populate_list, ptr @decode_as_default_reset, ptr @decode_as_default_change, ptr null }, align 8
@.str.275 = private unnamed_addr constant [5 x i8] c"sccp\00", align 1
@.str.287 = private unnamed_addr constant [17 x i8] c"SCCP Users Table\00", align 1
@.str.288 = private unnamed_addr constant [11 x i8] c"sccp_users\00", align 1
@sccp_users = internal global ptr null, align 8
@num_sccp_users = internal global i32 0, align 4
@.str.289 = private unnamed_addr constant [12 x i8] c"ChSccpUsers\00", align 1
@.str.290 = private unnamed_addr constant [35 x i8] c"Signalling Connection Control Part\00", align 1
@.str.291 = private unnamed_addr constant [5 x i8] c"SCCP\00", align 1
@proto_sccp = internal global i32 0, align 4
@sccp_handle = internal global ptr null, align 8
@.str.292 = private unnamed_addr constant [9 x i8] c"SCCP SSN\00", align 1
@sccp_ssn_dissector_table = internal global ptr null, align 8
@.str.293 = private unnamed_addr constant [19 x i8] c"SCCP Data fallback\00", align 1
@heur_subdissector_list = internal global ptr null, align 8
@.str.294 = private unnamed_addr constant [10 x i8] c"source_pc\00", align 1
@.str.295 = private unnamed_addr constant [19 x i8] c"Source PC (in hex)\00", align 1
@.str.296 = private unnamed_addr constant [89 x i8] c"The source point code (usually MSC) (to determine whether message is uplink or downlink)\00", align 1
@sccp_source_pc_global = internal global i32 0, align 4
@.str.297 = private unnamed_addr constant [12 x i8] c"show_length\00", align 1
@.str.298 = private unnamed_addr constant [12 x i8] c"Show length\00", align 1
@.str.299 = private unnamed_addr constant [43 x i8] c"Show parameter length in the protocol tree\00", align 1
@sccp_show_length = internal global i8 0, align 1
@.str.300 = private unnamed_addr constant [16 x i8] c"defragment_xudt\00", align 1
@.str.301 = private unnamed_addr constant [25 x i8] c"Reassemble SCCP messages\00", align 1
@.str.302 = private unnamed_addr constant [44 x i8] c"Whether SCCP messages should be reassembled\00", align 1
@sccp_reassemble = internal global i8 1, align 1
@.str.303 = private unnamed_addr constant [11 x i8] c"trace_sccp\00", align 1
@.str.304 = private unnamed_addr constant [19 x i8] c"Trace Associations\00", align 1
@.str.305 = private unnamed_addr constant [66 x i8] c"Whether to keep information about messages and their associations\00", align 1
@.str.306 = private unnamed_addr constant [15 x i8] c"show_more_info\00", align 1
@.str.307 = private unnamed_addr constant [35 x i8] c"Show key parameters in Info Column\00", align 1
@.str.308 = private unnamed_addr constant [77 x i8] c"Show SLR, DLR, and CAUSE Parameters in the Information Column of the Summary\00", align 1
@show_key_params = internal global i8 0, align 1
@.str.309 = private unnamed_addr constant [12 x i8] c"users_table\00", align 1
@.str.310 = private unnamed_addr constant [12 x i8] c"Users Table\00", align 1
@.str.311 = private unnamed_addr constant [80 x i8] c"A table that enumerates user protocols to be used against specific PCs and SSNs\00", align 1
@.str.312 = private unnamed_addr constant [14 x i8] c"set_addresses\00", align 1
@.str.313 = private unnamed_addr constant [40 x i8] c"Set source and destination GT addresses\00", align 1
@.str.314 = private unnamed_addr constant [162 x i8] c"Set the source and destination addresses to the GT digits (if present).  This may affect TCAP's ability to recognize which messages belong to which TCAP session.\00", align 1
@set_addresses = internal global i8 0, align 1
@.str.315 = private unnamed_addr constant [16 x i8] c"default_payload\00", align 1
@.str.316 = private unnamed_addr constant [16 x i8] c"Default Payload\00", align 1
@.str.317 = private unnamed_addr constant [89 x i8] c"The dissector which should be used to dissect the payload if nothing else has claimed it\00", align 1
@default_payload = internal global ptr null, align 8
@.str.318 = private unnamed_addr constant [18 x i8] c"dt1_ignore_length\00", align 1
@.str.319 = private unnamed_addr constant [33 x i8] c"Dissect data past 255 byte limit\00", align 1
@.str.320 = private unnamed_addr constant [135 x i8] c"Use all bytes for data payload. Overcome 255 bytes limit of SCCP standard.  (Some tracing tools externally reassemble segmented data.)\00", align 1
@dt1_ignore_length = internal global i8 0, align 1
@sccp_xudt_msg_reassembly_table = internal global %struct.reassembly_table zeroinitializer, align 8
@addresses_reassembly_table_functions = external constant %struct.reassembly_table_functions, align 8
@sccp_reassembly_ids = internal global ptr null, align 8
@sccp_reassembly_id_map = internal global ptr null, align 8
@sccp_tap = internal global i32 0, align 4

; Function Attrs: null_pointer_is_valid sspstrong uwtable
define hidden void @proto_register_sccp() #0 {
  %1 = alloca ptr, align 8
  %2 = alloca ptr, align 8
  %3 = alloca ptr, align 8
  call void @llvm.lifetime.start.p0(i64 8, ptr %1) #10
  call void @llvm.lifetime.start.p0(i64 8, ptr %2) #10
  call void @llvm.lifetime.start.p0(i64 8, ptr %3) #10
  %4 = call ptr @uat_new(ptr noundef @.str.287, i64 noundef 40, ptr noundef @.str.288, i1 noundef zeroext true, ptr noundef @sccp_users, ptr noundef @num_sccp_users, i32 noundef 1, ptr noundef @.str.289, ptr noundef @sccp_users_copy_cb, ptr noundef @sccp_users_update_cb, ptr noundef @sccp_users_free_cb, ptr noundef null, ptr noundef null, ptr noundef @proto_register_sccp.users_flds)
  store ptr %4, ptr %3, align 8
  %5 = call i32 @proto_register_protocol(ptr noundef @.str.290, ptr noundef @.str.291, ptr noundef @.str.275)
  store i32 %5, ptr @proto_sccp, align 4
  %6 = load i32, ptr @proto_sccp, align 4
  %7 = call ptr @register_dissector(ptr noundef @.str.275, ptr noundef @dissect_sccp, i32 noundef %6)
  store ptr %7, ptr @sccp_handle, align 8
  %8 = load i32, ptr @proto_sccp, align 4
  call void @proto_register_field_array(i32 noundef %8, ptr noundef @proto_register_sccp.hf, i32 noundef 102)
  call void @proto_register_subtree_array(ptr noundef @proto_register_sccp.ett, i32 noundef 17)
  %9 = load i32, ptr @proto_sccp, align 4
  %10 = call ptr @expert_register_protocol(i32 noundef %9)
  store ptr %10, ptr %2, align 8
  %11 = load ptr, ptr %2, align 8
  call void @expert_register_field_array(ptr noundef %11, ptr noundef @proto_register_sccp.ei, i32 noundef 8)
  %12 = load i32, ptr @proto_sccp, align 4
  %13 = call ptr @register_dissector_table(ptr noundef @.str.104, ptr noundef @.str.292, i32 noundef %12, i32 noundef 4, i32 noundef 1)
  store ptr %13, ptr @sccp_ssn_dissector_table, align 8
  %14 = load i32, ptr @proto_sccp, align 4
  %15 = call ptr @register_heur_dissector_list_with_description(ptr noundef @.str.275, ptr noundef @.str.293, i32 noundef %14)
  store ptr %15, ptr @heur_subdissector_list, align 8
  %16 = load i32, ptr @proto_sccp, align 4
  %17 = call ptr @prefs_register_protocol(i32 noundef %16, ptr noundef @proto_reg_handoff_sccp)
  store ptr %17, ptr %1, align 8
  %18 = load ptr, ptr %1, align 8
  call void @prefs_register_uint_preference(ptr noundef %18, ptr noundef @.str.294, ptr noundef @.str.295, ptr noundef @.str.296, i32 noundef 16, ptr noundef @sccp_source_pc_global)
  %19 = load ptr, ptr %1, align 8
  call void @prefs_register_bool_preference(ptr noundef %19, ptr noundef @.str.297, ptr noundef @.str.298, ptr noundef @.str.299, ptr noundef @sccp_show_length)
  %20 = load ptr, ptr %1, align 8
  call void @prefs_register_bool_preference(ptr noundef %20, ptr noundef @.str.300, ptr noundef @.str.301, ptr noundef @.str.302, ptr noundef @sccp_reassemble)
  %21 = load ptr, ptr %1, align 8
  call void @prefs_register_bool_preference(ptr noundef %21, ptr noundef @.str.303, ptr noundef @.str.304, ptr noundef @.str.305, ptr noundef @trace_sccp)
  %22 = load ptr, ptr %1, align 8
  call void @prefs_register_bool_preference(ptr noundef %22, ptr noundef @.str.306, ptr noundef @.str.307, ptr noundef @.str.308, ptr noundef @show_key_params)
  %23 = load ptr, ptr %1, align 8
  %24 = load ptr, ptr %3, align 8
  call void @prefs_register_uat_preference(ptr noundef %23, ptr noundef @.str.309, ptr noundef @.str.310, ptr noundef @.str.311, ptr noundef %24)
  %25 = load ptr, ptr %1, align 8
  call void @prefs_register_bool_preference(ptr noundef %25, ptr noundef @.str.312, ptr noundef @.str.313, ptr noundef @.str.314, ptr noundef @set_addresses)
  %26 = load ptr, ptr %1, align 8
  call void @prefs_register_dissector_preference(ptr noundef %26, ptr noundef @.str.315, ptr noundef @.str.316, ptr noundef @.str.317, ptr noundef @default_payload)
  %27 = load ptr, ptr %1, align 8
  call void @prefs_register_bool_preference(ptr noundef %27, ptr noundef @.str.318, ptr noundef @.str.319, ptr noundef @.str.320, ptr noundef @dt1_ignore_length)
  call void @register_init_routine(ptr noundef @init_sccp)
  call void @reassembly_table_register(ptr noundef @sccp_xudt_msg_reassembly_table, ptr noundef @addresses_reassembly_table_functions)
  %28 = call ptr @wmem_epan_scope()
  %29 = call ptr @wmem_file_scope()
  %30 = call noalias ptr @wmem_tree_new_autoreset(ptr noundef %28, ptr noundef %29)
  store ptr %30, ptr @assocs, align 8
  %31 = call ptr @wmem_epan_scope()
  %32 = call ptr @wmem_file_scope()
  %33 = call noalias ptr @wmem_tree_new_autoreset(ptr noundef %31, ptr noundef %32)
  store ptr %33, ptr @sccp_reassembly_ids, align 8
  %34 = call ptr @wmem_epan_scope()
  %35 = call ptr @wmem_file_scope()
  %36 = call noalias ptr @wmem_map_new_autoreset(ptr noundef %34, ptr noundef %35, ptr noundef @g_int64_hash, ptr noundef @g_int64_equal)
  store ptr %36, ptr @sccp_reassembly_id_map, align 8
  %37 = call i32 @register_tap(ptr noundef @.str.275)
  store i32 %37, ptr @sccp_tap, align 4
  call void @register_decode_as(ptr noundef @proto_register_sccp.sccp_da)
  call void @llvm.lifetime.end.p0(i64 8, ptr %3) #10
  call void @llvm.lifetime.end.p0(i64 8, ptr %2) #10
  call void @llvm.lifetime.end.p0(i64 8, ptr %1) #10
  ret void
}