; Function Attrs: null_pointer_is_valid sspstrong uwtable
define hidden void @proto_register_sccp() local_unnamed_addr #0 {
  %1 = tail call ptr @uat_new(ptr noundef nonnull @.str.287, i64 noundef 40, ptr noundef nonnull @.str.288, i1 noundef zeroext true, ptr noundef nonnull @sccp_users, ptr noundef nonnull @num_sccp_users, i32 noundef 1, ptr noundef nonnull @.str.289, ptr noundef nonnull @sccp_users_copy_cb, ptr noundef nonnull @sccp_users_update_cb, ptr noundef nonnull @sccp_users_free_cb, ptr noundef null, ptr noundef null, ptr noundef nonnull @proto_register_sccp.users_flds)
  %2 = tail call i32 @proto_register_protocol(ptr noundef nonnull @.str.290, ptr noundef nonnull @.str.291, ptr noundef nonnull @.str.275)
  store i32 %2, ptr @proto_sccp, align 4
  %3 = tail call ptr @register_dissector(ptr noundef nonnull @.str.275, ptr noundef nonnull @dissect_sccp, i32 noundef %2)
  store ptr %3, ptr @sccp_handle, align 8
  %4 = load i32, ptr @proto_sccp, align 4
  tail call void @proto_register_field_array(i32 noundef %4, ptr noundef nonnull @proto_register_sccp.hf, i32 noundef 102)
  tail call void @proto_register_subtree_array(ptr noundef nonnull @proto_register_sccp.ett, i32 noundef 17)
  %5 = load i32, ptr @proto_sccp, align 4
  %6 = tail call ptr @expert_register_protocol(i32 noundef %5)
  tail call void @expert_register_field_array(ptr noundef %6, ptr noundef nonnull @proto_register_sccp.ei, i32 noundef 8)
  %7 = load i32, ptr @proto_sccp, align 4
  %8 = tail call ptr @register_dissector_table(ptr noundef nonnull @.str.104, ptr noundef nonnull @.str.292, i32 noundef %7, i32 noundef 4, i32 noundef 1)
  store ptr %8, ptr @sccp_ssn_dissector_table, align 8
  %9 = load i32, ptr @proto_sccp, align 4
  %10 = tail call ptr @register_heur_dissector_list_with_description(ptr noundef nonnull @.str.275, ptr noundef nonnull @.str.293, i32 noundef %9)
  store ptr %10, ptr @heur_subdissector_list, align 8
  %11 = load i32, ptr @proto_sccp, align 4
  %12 = tail call ptr @prefs_register_protocol(i32 noundef %11, ptr noundef nonnull @proto_reg_handoff_sccp)
  tail call void @prefs_register_uint_preference(ptr noundef %12, ptr noundef nonnull @.str.294, ptr noundef nonnull @.str.295, ptr noundef nonnull @.str.296, i32 noundef 16, ptr noundef nonnull @sccp_source_pc_global)
  tail call void @prefs_register_bool_preference(ptr noundef %12, ptr noundef nonnull @.str.297, ptr noundef nonnull @.str.298, ptr noundef nonnull @.str.299, ptr noundef nonnull @sccp_show_length)
  tail call void @prefs_register_bool_preference(ptr noundef %12, ptr noundef nonnull @.str.300, ptr noundef nonnull @.str.301, ptr noundef nonnull @.str.302, ptr noundef nonnull @sccp_reassemble)
  tail call void @prefs_register_bool_preference(ptr noundef %12, ptr noundef nonnull @.str.303, ptr noundef nonnull @.str.304, ptr noundef nonnull @.str.305, ptr noundef nonnull @trace_sccp)
  tail call void @prefs_register_bool_preference(ptr noundef %12, ptr noundef nonnull @.str.306, ptr noundef nonnull @.str.307, ptr noundef nonnull @.str.308, ptr noundef nonnull @show_key_params)
  tail call void @prefs_register_uat_preference(ptr noundef %12, ptr noundef nonnull @.str.309, ptr noundef nonnull @.str.310, ptr noundef nonnull @.str.311, ptr noundef %1)
  tail call void @prefs_register_bool_preference(ptr noundef %12, ptr noundef nonnull @.str.312, ptr noundef nonnull @.str.313, ptr noundef nonnull @.str.314, ptr noundef nonnull @set_addresses)
  tail call void @prefs_register_dissector_preference(ptr noundef %12, ptr noundef nonnull @.str.315, ptr noundef nonnull @.str.316, ptr noundef nonnull @.str.317, ptr noundef nonnull @default_payload)
  tail call void @prefs_register_bool_preference(ptr noundef %12, ptr noundef nonnull @.str.318, ptr noundef nonnull @.str.319, ptr noundef nonnull @.str.320, ptr noundef nonnull @dt1_ignore_length)
  tail call void @register_init_routine(ptr noundef nonnull @init_sccp)
  tail call void @reassembly_table_register(ptr noundef nonnull @sccp_xudt_msg_reassembly_table, ptr noundef nonnull @addresses_reassembly_table_functions)
  %13 = tail call ptr @wmem_epan_scope()
  %14 = tail call ptr @wmem_file_scope()
  %15 = tail call noalias ptr @wmem_tree_new_autoreset(ptr noundef %13, ptr noundef %14)
  store ptr %15, ptr @assocs, align 8
  %16 = tail call ptr @wmem_epan_scope()
  %17 = tail call ptr @wmem_file_scope()
  %18 = tail call noalias ptr @wmem_tree_new_autoreset(ptr noundef %16, ptr noundef %17)
  store ptr %18, ptr @sccp_reassembly_ids, align 8
  %19 = tail call ptr @wmem_epan_scope()
  %20 = tail call ptr @wmem_file_scope()
  %21 = tail call noalias ptr @wmem_map_new_autoreset(ptr noundef %19, ptr noundef %20, ptr noundef nonnull @g_int64_hash, ptr noundef nonnull @g_int64_equal)
  store ptr %21, ptr @sccp_reassembly_id_map, align 8
  %22 = tail call i32 @register_tap(ptr noundef nonnull @.str.275)
  store i32 %22, ptr @sccp_tap, align 4
  tail call void @register_decode_as(ptr noundef nonnull @proto_register_sccp.sccp_da)
  ret void
}